target datalayout = "e-m:e-p270:32:32-p271:32:32-p272:64:64-i64:64-i128:128-f80:128-n8:16:32:64-S128"
target triple = "x86_64-pc-linux-gnu"

%struct.expert_field = type { i32, i32 }
%struct._packet_info = type { ptr, ptr, i32, i32, %struct.nstime_t, %struct.nstime_t, %struct.nstime_t, i8, ptr, ptr, ptr, ptr, %struct._address, %struct._address, %struct._address, %struct._address, %struct._address, %struct._address, i32, ptr, i8, [3 x i8], %struct.anon, i32, i32, i32, i32, ptr, i8, ptr, ptr, i16, i16, i32, i32, i16, i32, i32, ptr, ptr, ptr, i8, i8, i16, i16, i16, i32, i16, i16, ptr, ptr, ptr, ptr, ptr, i32, i32 }
%struct.nstime_t = type { i64, i32 }
%struct._address = type { i32, i32, ptr, ptr }
%struct.anon = type { i8, [3 x i8] }

@ei_bssgp_missing_mandatory_element = internal global %struct.expert_field zeroinitializer, align 4
@.str.6 = private unnamed_addr constant [71 x i8] c"Missing Mandatory element (0x%02x) %s%s, rest of dissection is suspect\00", align 1
@.str.7 = private unnamed_addr constant [1 x i8] zeroinitializer, align 1
@ei_bssgp_extraneous_data = internal global %struct.expert_field zeroinitializer, align 4

; Function Attrs: null_pointer_is_valid sspstrong uwtable
define internal void @bssgp_delete_bss_pfc_ack(ptr noundef %0, ptr noundef %1, ptr noundef %2, i32 noundef %3, i32 noundef %4) #1 {
  %6 = alloca ptr, align 8
  %7 = alloca ptr, align 8
  %8 = alloca ptr, align 8
  %9 = alloca i32, align 4
  %10 = alloca i32, align 4
  %11 = alloca i32, align 4
  %12 = alloca i32, align 4
  %13 = alloca i32, align 4
  store ptr %0, ptr %6, align 8
  store ptr %1, ptr %7, align 8
  store ptr %2, ptr %8, align 8
  store i32 %3, ptr %9, align 4
  store i32 %4, ptr %10, align 4
  call void @llvm.lifetime.start.p0(i64 4, ptr %11) #4
  call void @llvm.lifetime.start.p0(i64 4, ptr %12) #4
  call void @llvm.lifetime.start.p0(i64 4, ptr %13) #4
  %14 = load i32, ptr %9, align 4
  store i32 %14, ptr %11, align 4
  %15 = load i32, ptr %10, align 4
  store i32 %15, ptr %13, align 4
  %16 = load ptr, ptr %8, align 8
  %17 = getelementptr inbounds nuw %struct._packet_info, ptr %16, i32 0, i32 46
  store i32 0, ptr %17, align 8
  %18 = load i32, ptr %13, align 4
  %19 = icmp sgt i32 %18, 0
  br i1 %19, label %20, label %36

20:                                               ; preds = %5
  %21 = load ptr, ptr %6, align 8
  %22 = load ptr, ptr %7, align 8
  %23 = load ptr, ptr %8, align 8
  %24 = load i32, ptr %11, align 4
  %25 = load i32, ptr %13, align 4
  %26 = call zeroext i16 @elem_telv(ptr noundef %21, ptr noundef %22, ptr noundef %23, i8 noundef zeroext 31, i32 noundef 3, i32 noundef 68, i32 noundef %24, i32 noundef %25, ptr noundef null)
  %27 = zext i16 %26 to i32
  store i32 %27, ptr %12, align 4
  %28 = icmp ugt i32 %27, 0
  br i1 %28, label %29, label %36

29:                                               ; preds = %20
  %30 = load i32, ptr %12, align 4
  %31 = load i32, ptr %11, align 4
  %32 = add i32 %31, %30
  store i32 %32, ptr %11, align 4
  %33 = load i32, ptr %12, align 4
  %34 = load i32, ptr %13, align 4
  %35 = sub i32 %34, %33
  store i32 %35, ptr %13, align 4
  br label %43

36:                                               ; preds = %20, %5
  %37 = load ptr, ptr %7, align 8
  %38 = load ptr, ptr %8, align 8
  %39 = load ptr, ptr %6, align 8
  %40 = load i32, ptr %11, align 4
  %41 = call ptr @get_gsm_a_msg_string(i32 noundef 3, i32 noundef 68)
  %42 = call ptr (ptr, ptr, ptr, ptr, i32, i32, ptr, ...) @proto_tree_add_expert_format(ptr noundef %37, ptr noundef %38, ptr noundef @ei_bssgp_missing_mandatory_element, ptr noundef %39, i32 noundef %40, i32 noundef 0, ptr noundef @.str.6, i32 noundef 31, ptr noundef %41, ptr noundef @.str.7)
  br label %43

43:                                               ; preds = %36, %29
  %44 = load i32, ptr %13, align 4
  %45 = icmp sgt i32 %44, 0
  br i1 %45, label %46, label %62

46:                                               ; preds = %43
  %47 = load ptr, ptr %6, align 8
  %48 = load ptr, ptr %7, align 8
  %49 = load ptr, ptr %8, align 8
  %50 = load i32, ptr %11, align 4
  %51 = load i32, ptr %13, align 4
  %52 = call zeroext i16 @elem_telv(ptr noundef %47, ptr noundef %48, ptr noundef %49, i8 noundef zeroext 40, i32 noundef 5, i32 noundef 56, i32 noundef %50, i32 noundef %51, ptr noundef null)
  %53 = zext i16 %52 to i32
  store i32 %53, ptr %12, align 4
  %54 = icmp ugt i32 %53, 0
  br i1 %54, label %55, label %62

55:                                               ; preds = %46
  %56 = load i32, ptr %12, align 4
  %57 = load i32, ptr %11, align 4
  %58 = add i32 %57, %56
  store i32 %58, ptr %11, align 4
  %59 = load i32, ptr %12, align 4
  %60 = load i32, ptr %13, align 4
  %61 = sub i32 %60, %59
  store i32 %61, ptr %13, align 4
  br label %69

62:                                               ; preds = %46, %43
  %63 = load ptr, ptr %7, align 8
  %64 = load ptr, ptr %8, align 8
  %65 = load ptr, ptr %6, align 8
  %66 = load i32, ptr %11, align 4
  %67 = call ptr @get_gsm_a_msg_string(i32 noundef 5, i32 noundef 56)
  %68 = call ptr (ptr, ptr, ptr, ptr, i32, i32, ptr, ...) @proto_tree_add_expert_format(ptr noundef %63, ptr noundef %64, ptr noundef @ei_bssgp_missing_mandatory_element, ptr noundef %65, i32 noundef %66, i32 noundef 0, ptr noundef @.str.6, i32 noundef 40, ptr noundef %67, ptr noundef @.str.7)
  br label %69

69:                                               ; preds = %62, %55
  %70 = load i32, ptr %13, align 4
  %71 = icmp ugt i32 %70, 0
  br i1 %71, label %72, label %84

72:                                               ; preds = %69
  %73 = load ptr, ptr %7, align 8
  %74 = load ptr, ptr %8, align 8
  %75 = load ptr, ptr %6, align 8
  %76 = load i32, ptr %11, align 4
  %77 = load i32, ptr %13, align 4
  %78 = sub i32 %77, 0
  %79 = call ptr @proto_tree_add_expert(ptr noundef %73, ptr noundef %74, ptr noundef @ei_bssgp_extraneous_data, ptr noundef %75, i32 noundef %76, i32 noundef %78)
  %80 = load i32, ptr %13, align 4
  %81 = sub i32 %80, 0
  %82 = load i32, ptr %11, align 4
  %83 = add i32 %82, %81
  store i32 %83, ptr %11, align 4
  br label %84

84:                                               ; preds = %72, %69
  call void @llvm.lifetime.end.p0(i64 4, ptr %13) #4
  call void @llvm.lifetime.end.p0(i64 4, ptr %12) #4
  call void @llvm.lifetime.end.p0(i64 4, ptr %11) #4
  ret void
}